; Function Attrs: mustprogress uwtable
define void @_ZN11CMainWindow7slotRunEP8MdiChild(ptr noundef nonnull align 8 captures(none) dereferenceable(280) %0, ptr noundef %1) local_unnamed_addr #0 align 2 {
  tail call void @_ZN11CMainWindow8setChildEv(ptr noundef nonnull align 8 dereferenceable(280) %0)
  %.not = icmp eq ptr %1, null
  %3 = getelementptr inbounds nuw i8, ptr %0, i64 232
  %4 = load ptr, ptr %3, align 8, !tbaa !68
  br i1 %.not, label %5, label %_ZN11CMainWindow14activeMdiChildEv.exit

5:                                                ; preds = %2
  %6 = getelementptr inbounds nuw i8, ptr %0, i64 40
  %7 = load ptr, ptr %6, align 8, !tbaa !48
  %8 = tail call noundef ptr @_ZNK8QMdiArea15activeSubWindowEv(ptr noundef nonnull align 8 dereferenceable(40) %7)
  %.not.not.i = icmp eq ptr %8, null
  br i1 %.not.not.i, label %_ZN11CMainWindow14activeMdiChildEv.exit, label %9

9:                                                ; preds = %5
  %10 = tail call noundef ptr @_ZNK13QMdiSubWindow6widgetEv(ptr noundef nonnull align 8 dereferenceable(40) %8)
  %11 = load ptr, ptr %10, align 8, !tbaa !46
  %12 = getelementptr inbounds nuw i8, ptr %11, i64 8
  %13 = load ptr, ptr %12, align 8
  %14 = tail call noundef ptr %13(ptr noundef nonnull align 8 dereferenceable(16) %10, ptr noundef nonnull @.str.34)
  %.not8.i = icmp eq ptr %14, null
  %15 = tail call noundef ptr @_ZNK13QMdiSubWindow6widgetEv(ptr noundef nonnull align 8 dereferenceable(40) %8)
  br i1 %.not8.i, label %18, label %16

16:                                               ; preds = %9
  %17 = tail call noundef ptr @_ZNK11QMetaObject4castEPK7QObject(ptr noundef nonnull align 8 dereferenceable(56) @_ZN8MdiChild16staticMetaObjectE, ptr noundef %15)
  br label %_ZN11CMainWindow14activeMdiChildEv.exit

18:                                               ; preds = %9
  %19 = tail call noundef ptr @_ZNK11QMetaObject4castEPK7QObject(ptr noundef nonnull align 8 dereferenceable(56) @_ZN11ImageViewer16staticMetaObjectE, ptr noundef %15)
  %20 = getelementptr inbounds nuw i8, ptr %19, i64 40
  %21 = load ptr, ptr %20, align 8, !tbaa !220
  br label %_ZN11CMainWindow14activeMdiChildEv.exit

_ZN11CMainWindow14activeMdiChildEv.exit:          ; preds = %18, %16, %5, %2
  %spec.select.i.sink = phi ptr [ %1, %2 ], [ %17, %16 ], [ %21, %18 ], [ null, %5 ]
  %22 = tail call noundef i32 @_ZN12CFrmSettings11runSettingsEP8MdiChild(ptr noundef nonnull align 8 dereferenceable(152) %4, ptr noundef %spec.select.i.sink)
  ret void
}